; Function Attrs: mustprogress uwtable
define hidden void @_ZN3sat3mus11verify_coreERK7svectorINS_7literalEjE(ptr nocapture noundef nonnull readonly align 8 dereferenceable(44) %this, ptr nocapture noundef nonnull readonly align 8 dereferenceable(8) %core) local_unnamed_addr #6 align 2 {
entry:
  %0 = load ptr, ptr %this, align 8
  %1 = load ptr, ptr %core, align 8
  %cmp.i = icmp eq ptr %1, null
  br i1 %cmp.i, label %_ZNK6vectorIN3sat7literalELb0EjE4sizeEv.exit, label %if.end.i

if.end.i:                                         ; preds = %entry
  %arrayidx.i = getelementptr inbounds i8, ptr %1, i64 -4
  %2 = load i32, ptr %arrayidx.i, align 4
  br label %_ZNK6vectorIN3sat7literalELb0EjE4sizeEv.exit

_ZNK6vectorIN3sat7literalELb0EjE4sizeEv.exit:     ; preds = %entry, %if.end.i
  %retval.0.i = phi i32 [ %2, %if.end.i ], [ 0, %entry ]
  %call3 = tail call noundef i32 @_ZN3sat6solver5checkEjPKNS_7literalE(ptr noundef nonnull align 8 dereferenceable(4408) %0, i32 noundef %retval.0.i, ptr noundef %1)
  %call4 = tail call noundef i32 @_Z19get_verbosity_levelv()
  %cmp = icmp ugt i32 %call4, 2
  br i1 %cmp, label %if.then, label %if.end19

if.then:                                          ; preds = %_ZNK6vectorIN3sat7literalELb0EjE4sizeEv.exit
  %call5 = tail call noundef zeroext i1 @_Z11is_threadedv()
  br i1 %call5, label %if.then6, label %if.else

if.then6:                                         ; preds = %if.then
  tail call void @_Z12verbose_lockv()
  %call7 = tail call noundef nonnull align 8 dereferenceable(8) ptr @_Z14verbose_streamv()
  %call8 = tail call noundef nonnull align 8 dereferenceable(8) ptr @_ZStlsISt11char_traitsIcEERSt13basic_ostreamIcT_ES5_PKc(ptr noundef nonnull align 8 dereferenceable(8) %call7, ptr noundef nonnull @.str.11)
  %call9 = tail call noundef nonnull align 8 dereferenceable(8) ptr @_ZlsRSo5lbool(ptr noundef nonnull align 8 dereferenceable(8) %call8, i32 noundef %call3)
  %call10 = tail call noundef nonnull align 8 dereferenceable(8) ptr @_ZStlsISt11char_traitsIcEERSt13basic_ostreamIcT_ES5_PKc(ptr noundef nonnull align 8 dereferenceable(8) %call9, ptr noundef nonnull @.str.12)
  %3 = load ptr, ptr %core, align 8
  %cmp.i.i = icmp eq ptr %3, null
  br i1 %cmp.i.i, label %_ZN3satlsERSoRK7svectorINS_7literalEjE.exit, label %_ZNK6vectorIN3sat7literalELb0EjE4sizeEv.exit.i

_ZNK6vectorIN3sat7literalELb0EjE4sizeEv.exit.i:   ; preds = %if.then6
  %arrayidx.i.i = getelementptr inbounds i8, ptr %3, i64 -4
  %4 = load i32, ptr %arrayidx.i.i, align 4
  %cmp7.not.i.i = icmp eq i32 %4, 0
  br i1 %cmp7.not.i.i, label %_ZN3satlsERSoRK7svectorINS_7literalEjE.exit, label %for.body.i.preheader.i

for.body.i.preheader.i:                           ; preds = %_ZNK6vectorIN3sat7literalELb0EjE4sizeEv.exit.i
  %5 = zext i32 %4 to i64
  br label %for.body.i.i

for.body.i.i:                                     ; preds = %_ZN3satlsERSoNS_7literalE.exit.i.i, %for.body.i.preheader.i
  %indvars.iv.i.i = phi i64 [ %indvars.iv.next.i.i, %_ZN3satlsERSoNS_7literalE.exit.i.i ], [ 0, %for.body.i.preheader.i ]
  %cmp1.not.i.i = icmp eq i64 %indvars.iv.i.i, 0
  br i1 %cmp1.not.i.i, label %if.end.i3.i, label %if.then.i.i

if.then.i.i:                                      ; preds = %for.body.i.i
  %call.i.i = tail call noundef nonnull align 8 dereferenceable(8) ptr @_ZStlsISt11char_traitsIcEERSt13basic_ostreamIcT_ES5_PKc(ptr noundef nonnull align 8 dereferenceable(8) %call10, ptr noundef nonnull @.str.12)
  br label %if.end.i3.i

if.end.i3.i:                                      ; preds = %if.then.i.i, %for.body.i.i
  %arrayidx.i4.i = getelementptr inbounds %"class.sat::literal", ptr %3, i64 %indvars.iv.i.i
  %agg.tmp.sroa.0.0.copyload.i.i = load i32, ptr %arrayidx.i4.i, align 4
  %.b31 = load i1, ptr @_ZN3satL12null_literalE.0, align 4
  %6 = select i1 %.b31, i32 -2, i32 0
  %cmp.i.i.i.i = icmp eq i32 %6, %agg.tmp.sroa.0.0.copyload.i.i
  br i1 %cmp.i.i.i.i, label %if.then.i.i.i, label %if.else.i.i.i

if.then.i.i.i:                                    ; preds = %if.end.i3.i
  %call1.i.i.i = tail call noundef nonnull align 8 dereferenceable(8) ptr @_ZStlsISt11char_traitsIcEERSt13basic_ostreamIcT_ES5_PKc(ptr noundef nonnull align 8 dereferenceable(8) %call10, ptr noundef nonnull @.str.16)
  br label %_ZN3satlsERSoNS_7literalE.exit.i.i

if.else.i.i.i:                                    ; preds = %if.end.i3.i
  %7 = and i32 %agg.tmp.sroa.0.0.copyload.i.i, 1
  %tobool.i.not.i.i.i = icmp eq i32 %7, 0
  %cond.i.i.i = select i1 %tobool.i.not.i.i.i, ptr @.str.18, ptr @.str.17
  %call3.i.i.i = tail call noundef nonnull align 8 dereferenceable(8) ptr @_ZStlsISt11char_traitsIcEERSt13basic_ostreamIcT_ES5_PKc(ptr noundef nonnull align 8 dereferenceable(8) %call10, ptr noundef nonnull %cond.i.i.i)
  %shr.i.i.i.i = lshr i32 %agg.tmp.sroa.0.0.copyload.i.i, 1
  %call5.i.i.i = tail call noundef nonnull align 8 dereferenceable(8) ptr @_ZNSolsEj(ptr noundef nonnull align 8 dereferenceable(8) %call3.i.i.i, i32 noundef %shr.i.i.i.i)
  br label %_ZN3satlsERSoNS_7literalE.exit.i.i

_ZN3satlsERSoNS_7literalE.exit.i.i:               ; preds = %if.else.i.i.i, %if.then.i.i.i
  %indvars.iv.next.i.i = add nuw nsw i64 %indvars.iv.i.i, 1
  %exitcond.not.i = icmp eq i64 %indvars.iv.next.i.i, %5
  br i1 %exitcond.not.i, label %_ZN3satlsERSoRK7svectorINS_7literalEjE.exit, label %for.body.i.i, !llvm.loop !7

_ZN3satlsERSoRK7svectorINS_7literalEjE.exit:      ; preds = %_ZN3satlsERSoNS_7literalE.exit.i.i, %if.then6, %_ZNK6vectorIN3sat7literalELb0EjE4sizeEv.exit.i
  %call12 = tail call noundef nonnull align 8 dereferenceable(8) ptr @_ZStlsISt11char_traitsIcEERSt13basic_ostreamIcT_ES5_PKc(ptr noundef nonnull align 8 dereferenceable(8) %call10, ptr noundef nonnull @.str.13)
  tail call void @_Z14verbose_unlockv()
  br label %if.end19

if.else:                                          ; preds = %if.then
  %call13 = tail call noundef nonnull align 8 dereferenceable(8) ptr @_Z14verbose_streamv()
  %call14 = tail call noundef nonnull align 8 dereferenceable(8) ptr @_ZStlsISt11char_traitsIcEERSt13basic_ostreamIcT_ES5_PKc(ptr noundef nonnull align 8 dereferenceable(8) %call13, ptr noundef nonnull @.str.11)
  %call15 = tail call noundef nonnull align 8 dereferenceable(8) ptr @_ZlsRSo5lbool(ptr noundef nonnull align 8 dereferenceable(8) %call14, i32 noundef %call3)
  %call16 = tail call noundef nonnull align 8 dereferenceable(8) ptr @_ZStlsISt11char_traitsIcEERSt13basic_ostreamIcT_ES5_PKc(ptr noundef nonnull align 8 dereferenceable(8) %call15, ptr noundef nonnull @.str.12)
  %8 = load ptr, ptr %core, align 8
  %cmp.i.i5 = icmp eq ptr %8, null
  br i1 %cmp.i.i5, label %_ZN3satlsERSoRK7svectorINS_7literalEjE.exit30, label %_ZNK6vectorIN3sat7literalELb0EjE4sizeEv.exit.i6

_ZNK6vectorIN3sat7literalELb0EjE4sizeEv.exit.i6:  ; preds = %if.else
  %arrayidx.i.i7 = getelementptr inbounds i8, ptr %8, i64 -4
  %9 = load i32, ptr %arrayidx.i.i7, align 4
  %cmp7.not.i.i8 = icmp eq i32 %9, 0
  br i1 %cmp7.not.i.i8, label %_ZN3satlsERSoRK7svectorINS_7literalEjE.exit30, label %for.body.i.preheader.i9

for.body.i.preheader.i9:                          ; preds = %_ZNK6vectorIN3sat7literalELb0EjE4sizeEv.exit.i6
  %10 = zext i32 %9 to i64
  br label %for.body.i.i10

for.body.i.i10:                                   ; preds = %_ZN3satlsERSoNS_7literalE.exit.i.i25, %for.body.i.preheader.i9
  %indvars.iv.i.i11 = phi i64 [ %indvars.iv.next.i.i26, %_ZN3satlsERSoNS_7literalE.exit.i.i25 ], [ 0, %for.body.i.preheader.i9 ]
  %cmp1.not.i.i12 = icmp eq i64 %indvars.iv.i.i11, 0
  br i1 %cmp1.not.i.i12, label %if.end.i3.i15, label %if.then.i.i13

if.then.i.i13:                                    ; preds = %for.body.i.i10
  %call.i.i14 = tail call noundef nonnull align 8 dereferenceable(8) ptr @_ZStlsISt11char_traitsIcEERSt13basic_ostreamIcT_ES5_PKc(ptr noundef nonnull align 8 dereferenceable(8) %call16, ptr noundef nonnull @.str.12)
  br label %if.end.i3.i15

if.end.i3.i15:                                    ; preds = %if.then.i.i13, %for.body.i.i10
  %arrayidx.i4.i16 = getelementptr inbounds %"class.sat::literal", ptr %8, i64 %indvars.iv.i.i11
  %agg.tmp.sroa.0.0.copyload.i.i17 = load i32, ptr %arrayidx.i4.i16, align 4
  %.b = load i1, ptr @_ZN3satL12null_literalE.0, align 4
  %11 = select i1 %.b, i32 -2, i32 0
  %cmp.i.i.i.i18 = icmp eq i32 %11, %agg.tmp.sroa.0.0.copyload.i.i17
  br i1 %cmp.i.i.i.i18, label %if.then.i.i.i28, label %if.else.i.i.i19

if.then.i.i.i28:                                  ; preds = %if.end.i3.i15
  %call1.i.i.i29 = tail call noundef nonnull align 8 dereferenceable(8) ptr @_ZStlsISt11char_traitsIcEERSt13basic_ostreamIcT_ES5_PKc(ptr noundef nonnull align 8 dereferenceable(8) %call16, ptr noundef nonnull @.str.16)
  br label %_ZN3satlsERSoNS_7literalE.exit.i.i25

if.else.i.i.i19:                                  ; preds = %if.end.i3.i15
  %12 = and i32 %agg.tmp.sroa.0.0.copyload.i.i17, 1
  %tobool.i.not.i.i.i20 = icmp eq i32 %12, 0
  %cond.i.i.i21 = select i1 %tobool.i.not.i.i.i20, ptr @.str.18, ptr @.str.17
  %call3.i.i.i22 = tail call noundef nonnull align 8 dereferenceable(8) ptr @_ZStlsISt11char_traitsIcEERSt13basic_ostreamIcT_ES5_PKc(ptr noundef nonnull align 8 dereferenceable(8) %call16, ptr noundef nonnull %cond.i.i.i21)
  %shr.i.i.i.i23 = lshr i32 %agg.tmp.sroa.0.0.copyload.i.i17, 1
  %call5.i.i.i24 = tail call noundef nonnull align 8 dereferenceable(8) ptr @_ZNSolsEj(ptr noundef nonnull align 8 dereferenceable(8) %call3.i.i.i22, i32 noundef %shr.i.i.i.i23)
  br label %_ZN3satlsERSoNS_7literalE.exit.i.i25

_ZN3satlsERSoNS_7literalE.exit.i.i25:             ; preds = %if.else.i.i.i19, %if.then.i.i.i28
  %indvars.iv.next.i.i26 = add nuw nsw i64 %indvars.iv.i.i11, 1
  %exitcond.not.i27 = icmp eq i64 %indvars.iv.next.i.i26, %10
  br i1 %exitcond.not.i27, label %_ZN3satlsERSoRK7svectorINS_7literalEjE.exit30, label %for.body.i.i10, !llvm.loop !7

_ZN3satlsERSoRK7svectorINS_7literalEjE.exit30:    ; preds = %_ZN3satlsERSoNS_7literalE.exit.i.i25, %if.else, %_ZNK6vectorIN3sat7literalELb0EjE4sizeEv.exit.i6
  %call18 = tail call noundef nonnull align 8 dereferenceable(8) ptr @_ZStlsISt11char_traitsIcEERSt13basic_ostreamIcT_ES5_PKc(ptr noundef nonnull align 8 dereferenceable(8) %call16, ptr noundef nonnull @.str.13)
  br label %if.end19

if.end19:                                         ; preds = %_ZN3satlsERSoRK7svectorINS_7literalEjE.exit, %_ZN3satlsERSoRK7svectorINS_7literalEjE.exit30, %_ZNK6vectorIN3sat7literalELb0EjE4sizeEv.exit
  ret void
}